TN:
SF:/media/mate/Shared/Projects/lmms/plugins/Diginstrument/MultidimensionalNeighbourMap.hpp
FN:7,_ZN33MultidimensionalNeighbourMapEntryIfNSt7__cxx1112basic_stringIcSt11char_traitsIcESaIcEEEED2Ev
FN:12,_ZN33MultidimensionalNeighbourMapEntryIfNSt7__cxx1112basic_stringIcSt11char_traitsIcESaIcEEEEltEf.isra.60
FN:17,_ZN33MultidimensionalNeighbourMapEntryIfNSt7__cxx1112basic_stringIcSt11char_traitsIcESaIcEEEE14CompareWithKeyEfRKS6_
FN:22,_ZNK33MultidimensionalNeighbourMapEntryIfNSt7__cxx1112basic_stringIcSt11char_traitsIcESaIcEEEEltERKS6_.isra.91
FN:34,_ZNK33MultidimensionalNeighbourMapEntryIfNSt7__cxx1112basic_stringIcSt11char_traitsIcESaIcEEEE7isValueEv
FN:39,_ZNK33MultidimensionalNeighbourMapEntryIfNSt7__cxx1112basic_stringIcSt11char_traitsIcESaIcEEEE8getValueEv
FN:44,_ZN33MultidimensionalNeighbourMapEntryIfNSt7__cxx1112basic_stringIcSt11char_traitsIcESaIcEEEE8setValueERKS5_
FN:49,_ZN33MultidimensionalNeighbourMapEntryIfNSt7__cxx1112basic_stringIcSt11char_traitsIcESaIcEEEE7getNextEv
FN:55,_ZN33MultidimensionalNeighbourMapEntryIfNSt7__cxx1112basic_stringIcSt11char_traitsIcESaIcEEEEC2EfRKS5_
FN:60,_ZN33MultidimensionalNeighbourMapEntryIfNSt7__cxx1112basic_stringIcSt11char_traitsIcESaIcEEEEC2Ef
FN:63,_ZN33MultidimensionalNeighbourMapEntryIfNSt7__cxx1112basic_stringIcSt11char_traitsIcESaIcEEEEC2Ev
FN:72,_ZN28MultidimensionalNeighbourMapIfNSt7__cxx1112basic_stringIcSt11char_traitsIcESaIcEEEEC2Ev
FN:72,_ZN28MultidimensionalNeighbourMapIfNSt7__cxx1112basic_stringIcSt11char_traitsIcESaIcEEEED2Ev
FN:77,_ZNK28MultidimensionalNeighbourMapIfNSt7__cxx1112basic_stringIcSt11char_traitsIcESaIcEEEE13getDimensionsEv.isra.17
FN:93,_ZN33MultidimensionalNeighbourMapEntryIfNSt7__cxx1112basic_stringIcSt11char_traitsIcESaIcEEEEaSERKS6_
FN:103,_ZN33MultidimensionalNeighbourMapEntryIfNSt7__cxx1112basic_stringIcSt11char_traitsIcESaIcEEEEC2ERKS6_
FN:112,_ZN28MultidimensionalNeighbourMapIfNSt7__cxx1112basic_stringIcSt11char_traitsIcESaIcEEEE28findNeighboursOnOneDimensionERSt6vectorI33MultidimensionalNeighbourMapEntryIfS5_ESaIS9_EERKf
FN:135,_ZN28MultidimensionalNeighbourMapIfNSt7__cxx1112basic_stringIcSt11char_traitsIcESaIcEEEE6insertERKS5_RKSt6vectorIfSaIfEE
FN:181,_ZN28MultidimensionalNeighbourMapIfNSt7__cxx1112basic_stringIcSt11char_traitsIcESaIcEEEE13getNeighboursERKSt6vectorIfSaIfEE
FN:192,_ZN28MultidimensionalNeighbourMapIfNSt7__cxx1112basic_stringIcSt11char_traitsIcESaIcEEEE26getNeighboursRecursiveCallERSt6vectorI33MultidimensionalNeighbourMapEntryIfS5_ESaIS9_EERKS7_IfSaIfEEjRS7_IS7_IS5_SaIS5_EESaISI_EE
FN:211,_ZN28MultidimensionalNeighbourMapIfNSt7__cxx1112basic_stringIcSt11char_traitsIcESaIcEEEE5clearEv
FNDA:601,_ZN33MultidimensionalNeighbourMapEntryIfNSt7__cxx1112basic_stringIcSt11char_traitsIcESaIcEEEED2Ev
FNDA:342,_ZN33MultidimensionalNeighbourMapEntryIfNSt7__cxx1112basic_stringIcSt11char_traitsIcESaIcEEEEltEf.isra.60
FNDA:15,_ZN33MultidimensionalNeighbourMapEntryIfNSt7__cxx1112basic_stringIcSt11char_traitsIcESaIcEEEE14CompareWithKeyEfRKS6_
FNDA:102,_ZNK33MultidimensionalNeighbourMapEntryIfNSt7__cxx1112basic_stringIcSt11char_traitsIcESaIcEEEEltERKS6_.isra.91
FNDA:40,_ZNK33MultidimensionalNeighbourMapEntryIfNSt7__cxx1112basic_stringIcSt11char_traitsIcESaIcEEEE7isValueEv
FNDA:12,_ZNK33MultidimensionalNeighbourMapEntryIfNSt7__cxx1112basic_stringIcSt11char_traitsIcESaIcEEEE8getValueEv
FNDA:1,_ZN33MultidimensionalNeighbourMapEntryIfNSt7__cxx1112basic_stringIcSt11char_traitsIcESaIcEEEE8setValueERKS5_
FNDA:100,_ZN33MultidimensionalNeighbourMapEntryIfNSt7__cxx1112basic_stringIcSt11char_traitsIcESaIcEEEE7getNextEv
FNDA:90,_ZN33MultidimensionalNeighbourMapEntryIfNSt7__cxx1112basic_stringIcSt11char_traitsIcESaIcEEEEC2EfRKS5_
FNDA:70,_ZN33MultidimensionalNeighbourMapEntryIfNSt7__cxx1112basic_stringIcSt11char_traitsIcESaIcEEEEC2Ef
FNDA:0,_ZN33MultidimensionalNeighbourMapEntryIfNSt7__cxx1112basic_stringIcSt11char_traitsIcESaIcEEEEC2Ev
FNDA:11,_ZN28MultidimensionalNeighbourMapIfNSt7__cxx1112basic_stringIcSt11char_traitsIcESaIcEEEED2Ev
FNDA:11,_ZN28MultidimensionalNeighbourMapIfNSt7__cxx1112basic_stringIcSt11char_traitsIcESaIcEEEEC2Ev
FNDA:4,_ZNK28MultidimensionalNeighbourMapIfNSt7__cxx1112basic_stringIcSt11char_traitsIcESaIcEEEE13getDimensionsEv.isra.17
FNDA:201,_ZN33MultidimensionalNeighbourMapEntryIfNSt7__cxx1112basic_stringIcSt11char_traitsIcESaIcEEEEaSERKS6_
FNDA:441,_ZN33MultidimensionalNeighbourMapEntryIfNSt7__cxx1112basic_stringIcSt11char_traitsIcESaIcEEEEC2ERKS6_
FNDA:16,_ZN28MultidimensionalNeighbourMapIfNSt7__cxx1112basic_stringIcSt11char_traitsIcESaIcEEEE28findNeighboursOnOneDimensionERSt6vectorI33MultidimensionalNeighbourMapEntryIfS5_ESaIS9_EERKf
FNDA:91,_ZN28MultidimensionalNeighbourMapIfNSt7__cxx1112basic_stringIcSt11char_traitsIcESaIcEEEE6insertERKS5_RKSt6vectorIfSaIfEE
FNDA:7,_ZN28MultidimensionalNeighbourMapIfNSt7__cxx1112basic_stringIcSt11char_traitsIcESaIcEEEE13getNeighboursERKSt6vectorIfSaIfEE
FNDA:16,_ZN28MultidimensionalNeighbourMapIfNSt7__cxx1112basic_stringIcSt11char_traitsIcESaIcEEEE26getNeighboursRecursiveCallERSt6vectorI33MultidimensionalNeighbourMapEntryIfS5_ESaIS9_EERKS7_IfSaIfEEjRS7_IS7_IS5_SaIS5_EESaISI_EE
FNDA:1,_ZN28MultidimensionalNeighbourMapIfNSt7__cxx1112basic_stringIcSt11char_traitsIcESaIcEEEE5clearEv
FNF:21
FNH:20
BRDA:55,1,2,90
BRDA:55,1,3,0
BRDA:57,0,1,90
BRDA:57,0,2,0
BRDA:60,1,2,70
BRDA:60,1,3,0
BRDA:63,1,2,-
BRDA:63,1,3,-
BRDA:96,0,0,81
BRDA:96,0,1,120
BRDA:105,4294967295,0,241
BRDA:105,4294967295,1,200
BRDA:106,0,1,241
BRDA:106,0,2,0
BRDA:107,0,1,441
BRDA:107,0,2,0
BRDA:115,4294967295,0,9
BRDA:115,4294967295,1,7
BRDA:120,0,1,1
BRDA:120,0,2,6
BRDA:126,4294967295,1,1
BRDA:126,4294967295,2,5
BRDA:137,0,0,10
BRDA:137,0,1,81
BRDA:137,1,2,10
BRDA:137,1,3,0
BRDA:140,1,4,182
BRDA:140,1,5,90
BRDA:146,4294967295,1,42
BRDA:146,4294967295,2,140
BRDA:146,0,3,20
BRDA:146,0,4,22
BRDA:148,0,0,1
BRDA:148,0,1,21
BRDA:151,0,1,1
BRDA:151,0,2,0
BRDA:152,0,6,1
BRDA:152,0,7,0
BRDA:162,0,0,90
BRDA:162,0,1,70
BRDA:165,0,1,90
BRDA:165,0,2,0
BRDA:165,1,4,90
BRDA:165,1,5,0
BRDA:166,4294967295,6,90
BRDA:166,4294967295,7,0
BRDA:169,0,1,70
BRDA:169,0,2,0
BRDA:169,1,4,70
BRDA:169,1,5,0
BRDA:170,4294967295,6,70
BRDA:170,4294967295,7,0
BRDA:175,0,0,10
BRDA:175,0,1,150
BRDA:184,0,0,0
BRDA:184,0,1,7
BRDA:186,4294967295,1,7
BRDA:186,4294967295,2,0
BRDA:187,0,1,7
BRDA:187,0,2,0
BRDA:198,4294967295,0,15
BRDA:198,4294967295,1,1
BRDA:198,0,2,6
BRDA:198,0,3,9
BRDA:198,1,4,3
BRDA:198,1,5,4
BRDA:198,2,6,0
BRDA:198,2,7,3
BRDA:200,0,0,9
BRDA:200,0,1,0
BRDA:200,1,2,3
BRDA:200,1,3,6
BRDA:200,2,7,3
BRDA:200,2,8,0
BRDA:200,3,11,3
BRDA:200,3,12,0
BRDA:200,4,14,3
BRDA:200,4,15,0
BRDA:200,6,17,6
BRDA:200,6,18,3
BRDA:200,10,23,-
BRDA:200,10,24,-
BRDA:201,0,0,6
BRDA:201,0,1,0
BRDA:201,1,5,6
BRDA:201,1,6,0
BRDA:201,2,8,6
BRDA:201,2,9,0
BRDA:201,4,11,6
BRDA:201,4,12,6
BRDA:201,6,16,-
BRDA:201,6,17,-
BRDA:202,0,0,-
BRDA:202,0,1,-
BRDA:202,1,5,-
BRDA:202,1,6,-
BRDA:202,2,8,-
BRDA:202,2,9,-
BRDA:202,4,11,-
BRDA:202,4,12,-
BRDA:202,6,16,-
BRDA:202,6,17,-
BRDA:205,0,0,6
BRDA:205,0,1,1
BRDA:206,0,0,3
BRDA:206,0,1,4
BRF:106
BRH:65
DA:7,1202
DA:12,684
DA:14,342
DA:17,15
DA:19,15
DA:22,204
DA:24,102
DA:34,40
DA:36,40
DA:39,12
DA:41,12
DA:44,1
DA:46,1
DA:47,1
DA:49,100
DA:51,100
DA:55,180
DA:57,90
DA:58,90
DA:60,70
DA:63,0
DA:72,44
DA:77,8
DA:93,201
DA:95,201
DA:96,201
DA:97,81
DA:98,201
DA:99,201
DA:103,882
DA:105,441
DA:106,241
DA:107,441
DA:108,441
DA:112,16
DA:114,16
DA:115,16
DA:118,9
DA:120,7
DA:123,1
DA:125,6
DA:126,6
DA:129,1
DA:131,5
DA:135,91
DA:137,91
DA:138,91
DA:139,91
DA:140,273
DA:142,182
DA:143,182
DA:144,182
DA:146,182
DA:148,22
DA:151,1
DA:152,1
DA:153,1
DA:156,21
DA:162,160
DA:165,90
DA:166,90
DA:169,70
DA:170,70
DA:172,70
DA:175,160
DA:181,7
DA:184,7
DA:185,14
DA:186,7
DA:187,7
DA:188,7
DA:192,16
DA:197,16
DA:198,16
DA:200,28
DA:201,12
DA:202,0
DA:205,7
DA:206,7
DA:211,1
DA:213,1
DA:214,1
DA:215,1
LF:83
LH:81
end_of_record
SF:/media/mate/Shared/Projects/lmms/plugins/Diginstrument/test/MultidimensionalNeighbourMapTest.cpp
FN:7,_ZN12_GLOBAL__N_132MultidimensionalNeighbourMapTestD2Ev
FN:10,_ZN12_GLOBAL__N_132MultidimensionalNeighbourMapTest5SetUpEv
FN:22,_ZN12_GLOBAL__N_132MultidimensionalNeighbourMapTest8TearDownEv
FN:26,_ZN12_GLOBAL__N_132MultidimensionalNeighbourMapTestC2Ev
FN:29,_ZN12_GLOBAL__N_149MultidimensionalNeighbourMapTest_Constructor_TestD2Ev
FN:29,_ZN12_GLOBAL__N_149MultidimensionalNeighbourMapTest_Constructor_Test8TestBodyEv
FN:29,_ZN12_GLOBAL__N_149MultidimensionalNeighbourMapTest_Constructor_TestC2Ev
FN:29,_ZN12_GLOBAL__N_149MultidimensionalNeighbourMapTest_Constructor_TestD0Ev
FN:35,_ZN12_GLOBAL__N_148MultidimensionalNeighbourMapTest_Dimensions_TestC2Ev
FN:35,_ZN12_GLOBAL__N_148MultidimensionalNeighbourMapTest_Dimensions_Test8TestBodyEv
FN:35,_ZN12_GLOBAL__N_148MultidimensionalNeighbourMapTest_Dimensions_TestD0Ev
FN:35,_ZN12_GLOBAL__N_148MultidimensionalNeighbourMapTest_Dimensions_TestD2Ev
FN:40,_ZN12_GLOBAL__N_143MultidimensionalNeighbourMapTest_Clear_Test8TestBodyEv
FN:40,_ZN12_GLOBAL__N_143MultidimensionalNeighbourMapTest_Clear_TestD0Ev
FN:40,_ZN12_GLOBAL__N_143MultidimensionalNeighbourMapTest_Clear_TestD2Ev
FN:40,_ZN12_GLOBAL__N_143MultidimensionalNeighbourMapTest_Clear_TestC2Ev
FN:47,_ZN12_GLOBAL__N_148MultidimensionalNeighbourMapTest_ExactMatch_Test8TestBodyEv
FN:47,_ZN12_GLOBAL__N_148MultidimensionalNeighbourMapTest_ExactMatch_TestD2Ev
FN:47,_ZN12_GLOBAL__N_148MultidimensionalNeighbourMapTest_ExactMatch_TestD0Ev
FN:47,_ZN12_GLOBAL__N_148MultidimensionalNeighbourMapTest_ExactMatch_TestC2Ev
FN:55,_ZN12_GLOBAL__N_152MultidimensionalNeighbourMapTest_OutOfBoundsLow_Test8TestBodyEv
FN:55,_ZN12_GLOBAL__N_152MultidimensionalNeighbourMapTest_OutOfBoundsLow_TestD2Ev
FN:55,_ZN12_GLOBAL__N_152MultidimensionalNeighbourMapTest_OutOfBoundsLow_TestD0Ev
FN:55,_ZN12_GLOBAL__N_152MultidimensionalNeighbourMapTest_OutOfBoundsLow_TestC2Ev
FN:63,_ZN12_GLOBAL__N_153MultidimensionalNeighbourMapTest_OutOfBoundsHigh_Test8TestBodyEv
FN:63,_ZN12_GLOBAL__N_153MultidimensionalNeighbourMapTest_OutOfBoundsHigh_TestD2Ev
FN:63,_ZN12_GLOBAL__N_153MultidimensionalNeighbourMapTest_OutOfBoundsHigh_TestC2Ev
FN:63,_ZN12_GLOBAL__N_153MultidimensionalNeighbourMapTest_OutOfBoundsHigh_TestD0Ev
FN:71,_ZN12_GLOBAL__N_160MultidimensionalNeighbourMapTest_ExactOnSecondDimension_TestD2Ev
FN:71,_ZN12_GLOBAL__N_160MultidimensionalNeighbourMapTest_ExactOnSecondDimension_TestC2Ev
FN:71,_ZN12_GLOBAL__N_160MultidimensionalNeighbourMapTest_ExactOnSecondDimension_Test8TestBodyEv
FN:71,_ZN12_GLOBAL__N_160MultidimensionalNeighbourMapTest_ExactOnSecondDimension_TestD0Ev
FN:81,_ZN12_GLOBAL__N_159MultidimensionalNeighbourMapTest_ExactOnFirstDimension_Test8TestBodyEv
FN:81,_ZN12_GLOBAL__N_159MultidimensionalNeighbourMapTest_ExactOnFirstDimension_TestD2Ev
FN:81,_ZN12_GLOBAL__N_159MultidimensionalNeighbourMapTest_ExactOnFirstDimension_TestC2Ev
FN:81,_ZN12_GLOBAL__N_159MultidimensionalNeighbourMapTest_ExactOnFirstDimension_TestD0Ev
FN:90,_ZN12_GLOBAL__N_152MultidimensionalNeighbourMapTest_FullNeighbours_TestC2Ev
FN:90,_ZN12_GLOBAL__N_152MultidimensionalNeighbourMapTest_FullNeighbours_TestD0Ev
FN:90,_ZN12_GLOBAL__N_152MultidimensionalNeighbourMapTest_FullNeighbours_TestD2Ev
FN:90,_ZN12_GLOBAL__N_152MultidimensionalNeighbourMapTest_FullNeighbours_Test8TestBodyEv
FN:100,_ZN12_GLOBAL__N_147MultidimensionalNeighbourMapTest_Overwrite_TestD2Ev
FN:100,_ZN12_GLOBAL__N_147MultidimensionalNeighbourMapTest_Overwrite_TestC2Ev
FN:100,_ZN12_GLOBAL__N_147MultidimensionalNeighbourMapTest_Overwrite_Test8TestBodyEv
FN:100,_ZN12_GLOBAL__N_147MultidimensionalNeighbourMapTest_Overwrite_TestD0Ev
FN:109,_GLOBAL__sub_I_MultidimensionalNeighbourMapTest.cpp
FN:109,_Z41__static_initialization_and_destruction_0ii
FNDA:10,_ZN12_GLOBAL__N_132MultidimensionalNeighbourMapTestD2Ev
FNDA:10,_ZN12_GLOBAL__N_132MultidimensionalNeighbourMapTest5SetUpEv
FNDA:10,_ZN12_GLOBAL__N_132MultidimensionalNeighbourMapTest8TearDownEv
FNDA:10,_ZN12_GLOBAL__N_132MultidimensionalNeighbourMapTestC2Ev
FNDA:1,_ZN12_GLOBAL__N_149MultidimensionalNeighbourMapTest_Constructor_TestD0Ev
FNDA:1,_ZN12_GLOBAL__N_149MultidimensionalNeighbourMapTest_Constructor_TestD2Ev
FNDA:1,_ZN12_GLOBAL__N_149MultidimensionalNeighbourMapTest_Constructor_Test8TestBodyEv
FNDA:1,_ZN12_GLOBAL__N_149MultidimensionalNeighbourMapTest_Constructor_TestC2Ev
FNDA:1,_ZN12_GLOBAL__N_148MultidimensionalNeighbourMapTest_Dimensions_TestD0Ev
FNDA:1,_ZN12_GLOBAL__N_148MultidimensionalNeighbourMapTest_Dimensions_TestD2Ev
FNDA:1,_ZN12_GLOBAL__N_148MultidimensionalNeighbourMapTest_Dimensions_Test8TestBodyEv
FNDA:1,_ZN12_GLOBAL__N_148MultidimensionalNeighbourMapTest_Dimensions_TestC2Ev
FNDA:1,_ZN12_GLOBAL__N_143MultidimensionalNeighbourMapTest_Clear_TestD0Ev
FNDA:1,_ZN12_GLOBAL__N_143MultidimensionalNeighbourMapTest_Clear_TestD2Ev
FNDA:1,_ZN12_GLOBAL__N_143MultidimensionalNeighbourMapTest_Clear_Test8TestBodyEv
FNDA:1,_ZN12_GLOBAL__N_143MultidimensionalNeighbourMapTest_Clear_TestC2Ev
FNDA:1,_ZN12_GLOBAL__N_148MultidimensionalNeighbourMapTest_ExactMatch_TestD0Ev
FNDA:1,_ZN12_GLOBAL__N_148MultidimensionalNeighbourMapTest_ExactMatch_TestD2Ev
FNDA:1,_ZN12_GLOBAL__N_148MultidimensionalNeighbourMapTest_ExactMatch_Test8TestBodyEv
FNDA:1,_ZN12_GLOBAL__N_148MultidimensionalNeighbourMapTest_ExactMatch_TestC2Ev
FNDA:1,_ZN12_GLOBAL__N_152MultidimensionalNeighbourMapTest_OutOfBoundsLow_TestD0Ev
FNDA:1,_ZN12_GLOBAL__N_152MultidimensionalNeighbourMapTest_OutOfBoundsLow_TestD2Ev
FNDA:1,_ZN12_GLOBAL__N_152MultidimensionalNeighbourMapTest_OutOfBoundsLow_Test8TestBodyEv
FNDA:1,_ZN12_GLOBAL__N_152MultidimensionalNeighbourMapTest_OutOfBoundsLow_TestC2Ev
FNDA:1,_ZN12_GLOBAL__N_153MultidimensionalNeighbourMapTest_OutOfBoundsHigh_TestD0Ev
FNDA:1,_ZN12_GLOBAL__N_153MultidimensionalNeighbourMapTest_OutOfBoundsHigh_TestD2Ev
FNDA:1,_ZN12_GLOBAL__N_153MultidimensionalNeighbourMapTest_OutOfBoundsHigh_Test8TestBodyEv
FNDA:1,_ZN12_GLOBAL__N_153MultidimensionalNeighbourMapTest_OutOfBoundsHigh_TestC2Ev
FNDA:1,_ZN12_GLOBAL__N_160MultidimensionalNeighbourMapTest_ExactOnSecondDimension_TestD0Ev
FNDA:1,_ZN12_GLOBAL__N_160MultidimensionalNeighbourMapTest_ExactOnSecondDimension_TestD2Ev
FNDA:1,_ZN12_GLOBAL__N_160MultidimensionalNeighbourMapTest_ExactOnSecondDimension_Test8TestBodyEv
FNDA:1,_ZN12_GLOBAL__N_160MultidimensionalNeighbourMapTest_ExactOnSecondDimension_TestC2Ev
FNDA:1,_ZN12_GLOBAL__N_159MultidimensionalNeighbourMapTest_ExactOnFirstDimension_TestD0Ev
FNDA:1,_ZN12_GLOBAL__N_159MultidimensionalNeighbourMapTest_ExactOnFirstDimension_TestD2Ev
FNDA:1,_ZN12_GLOBAL__N_159MultidimensionalNeighbourMapTest_ExactOnFirstDimension_Test8TestBodyEv
FNDA:1,_ZN12_GLOBAL__N_159MultidimensionalNeighbourMapTest_ExactOnFirstDimension_TestC2Ev
FNDA:1,_ZN12_GLOBAL__N_152MultidimensionalNeighbourMapTest_FullNeighbours_TestD0Ev
FNDA:1,_ZN12_GLOBAL__N_152MultidimensionalNeighbourMapTest_FullNeighbours_TestD2Ev
FNDA:1,_ZN12_GLOBAL__N_152MultidimensionalNeighbourMapTest_FullNeighbours_Test8TestBodyEv
FNDA:1,_ZN12_GLOBAL__N_152MultidimensionalNeighbourMapTest_FullNeighbours_TestC2Ev
FNDA:1,_ZN12_GLOBAL__N_147MultidimensionalNeighbourMapTest_Overwrite_TestD0Ev
FNDA:1,_ZN12_GLOBAL__N_147MultidimensionalNeighbourMapTest_Overwrite_TestD2Ev
FNDA:1,_ZN12_GLOBAL__N_147MultidimensionalNeighbourMapTest_Overwrite_Test8TestBodyEv
FNDA:1,_ZN12_GLOBAL__N_147MultidimensionalNeighbourMapTest_Overwrite_TestC2Ev
FNDA:1,_GLOBAL__sub_I_MultidimensionalNeighbourMapTest.cpp
FNDA:1,_Z41__static_initialization_and_destruction_0ii
FNF:46
FNH:46
BRDA:12,0,1,10
BRDA:12,0,2,0
BRDA:12,1,4,10
BRDA:12,1,5,0
BRDA:12,2,7,10
BRDA:12,2,8,0
BRDA:13,4294967295,1,10
BRDA:13,4294967295,2,0
BRDA:13,0,4,10
BRDA:13,0,5,0
BRDA:13,1,7,10
BRDA:13,1,8,0
BRDA:14,4294967295,1,10
BRDA:14,4294967295,2,0
BRDA:14,0,4,10
BRDA:14,0,5,0
BRDA:14,1,7,10
BRDA:14,1,8,0
BRDA:15,4294967295,1,10
BRDA:15,4294967295,2,0
BRDA:15,0,4,10
BRDA:15,0,5,0
BRDA:15,1,7,10
BRDA:15,1,8,0
BRDA:16,4294967295,1,10
BRDA:16,4294967295,2,0
BRDA:16,0,4,10
BRDA:16,0,5,0
BRDA:16,1,7,10
BRDA:16,1,8,0
BRDA:17,4294967295,1,10
BRDA:17,4294967295,2,0
BRDA:17,0,4,10
BRDA:17,0,5,0
BRDA:17,1,7,10
BRDA:17,1,8,0
BRDA:18,4294967295,1,10
BRDA:18,4294967295,2,0
BRDA:18,0,4,10
BRDA:18,0,5,0
BRDA:18,1,7,10
BRDA:18,1,8,0
BRDA:19,4294967295,1,10
BRDA:19,4294967295,2,0
BRDA:19,0,4,10
BRDA:19,0,5,0
BRDA:19,1,7,10
BRDA:19,1,8,0
BRDA:20,4294967295,1,10
BRDA:20,4294967295,2,0
BRDA:20,0,4,10
BRDA:20,0,5,0
BRDA:20,1,7,10
BRDA:20,1,8,0
BRDA:29,4294967295,5,1
BRDA:29,4294967295,6,0
BRDA:29,0,8,1
BRDA:29,0,9,0
BRDA:29,1,12,1
BRDA:29,1,13,0
BRDA:32,4294967295,1,1
BRDA:32,4294967295,2,0
BRDA:32,0,4,1
BRDA:32,0,5,0
BRDA:32,1,7,0
BRDA:32,1,8,1
BRDA:32,2,10,-
BRDA:32,2,11,-
BRDA:32,3,13,-
BRDA:32,3,14,-
BRDA:32,4,16,-
BRDA:32,4,17,-
BRDA:35,4294967295,5,1
BRDA:35,4294967295,6,0
BRDA:35,0,8,1
BRDA:35,0,9,0
BRDA:35,1,12,1
BRDA:35,1,13,0
BRDA:37,0,1,1
BRDA:37,0,2,0
BRDA:37,1,4,1
BRDA:37,1,5,0
BRDA:37,2,7,0
BRDA:37,2,8,1
BRDA:37,3,10,-
BRDA:37,3,11,-
BRDA:37,4,13,-
BRDA:37,4,14,-
BRDA:37,5,16,-
BRDA:37,5,17,-
BRDA:40,4294967295,5,1
BRDA:40,4294967295,6,0
BRDA:40,0,8,1
BRDA:40,0,9,0
BRDA:40,1,12,1
BRDA:40,1,13,0
BRDA:42,0,1,1
BRDA:42,0,2,0
BRDA:42,1,4,1
BRDA:42,1,5,0
BRDA:42,2,7,0
BRDA:42,2,8,1
BRDA:42,3,10,-
BRDA:42,3,11,-
BRDA:42,4,13,-
BRDA:42,4,14,-
BRDA:42,5,16,-
BRDA:42,5,17,-
BRDA:44,4294967295,1,1
BRDA:44,4294967295,2,0
BRDA:44,0,4,1
BRDA:44,0,5,0
BRDA:44,1,7,0
BRDA:44,1,8,1
BRDA:44,2,10,-
BRDA:44,2,11,-
BRDA:44,3,13,-
BRDA:44,3,14,-
BRDA:44,4,16,-
BRDA:44,4,17,-
BRDA:47,4294967295,5,1
BRDA:47,4294967295,6,0
BRDA:47,0,8,1
BRDA:47,0,9,0
BRDA:47,1,12,1
BRDA:47,1,13,0
BRDA:49,0,1,1
BRDA:49,0,2,0
BRDA:49,1,4,1
BRDA:49,1,5,0
BRDA:50,4294967295,1,1
BRDA:50,4294967295,2,0
BRDA:50,0,4,1
BRDA:50,0,5,0
BRDA:50,1,7,0
BRDA:50,1,8,1
BRDA:50,2,10,-
BRDA:50,2,11,-
BRDA:50,3,13,-
BRDA:50,3,14,-
BRDA:50,4,16,-
BRDA:50,4,17,-
BRDA:51,4294967295,2,1
BRDA:51,4294967295,3,0
BRDA:51,0,5,1
BRDA:51,0,6,0
BRDA:51,1,8,0
BRDA:51,1,9,1
BRDA:51,2,11,-
BRDA:51,2,12,-
BRDA:51,3,14,-
BRDA:51,3,15,-
BRDA:51,4,17,-
BRDA:51,4,18,-
BRDA:52,4294967295,3,1
BRDA:52,4294967295,4,0
BRDA:52,0,6,1
BRDA:52,0,7,0
BRDA:52,1,9,0
BRDA:52,1,10,1
BRDA:52,2,12,-
BRDA:52,2,13,-
BRDA:52,3,15,-
BRDA:52,3,16,-
BRDA:52,4,18,-
BRDA:52,4,19,-
BRDA:55,4294967295,5,1
BRDA:55,4294967295,6,0
BRDA:55,0,8,1
BRDA:55,0,9,0
BRDA:55,1,12,1
BRDA:55,1,13,0
BRDA:57,0,1,1
BRDA:57,0,2,0
BRDA:57,1,4,1
BRDA:57,1,5,0
BRDA:58,4294967295,1,1
BRDA:58,4294967295,2,0
BRDA:58,0,4,1
BRDA:58,0,5,0
BRDA:58,1,7,0
BRDA:58,1,8,1
BRDA:58,2,10,-
BRDA:58,2,11,-
BRDA:58,3,13,-
BRDA:58,3,14,-
BRDA:58,4,16,-
BRDA:58,4,17,-
BRDA:59,4294967295,2,1
BRDA:59,4294967295,3,0
BRDA:59,0,5,1
BRDA:59,0,6,0
BRDA:59,1,8,0
BRDA:59,1,9,1
BRDA:59,2,11,-
BRDA:59,2,12,-
BRDA:59,3,14,-
BRDA:59,3,15,-
BRDA:59,4,17,-
BRDA:59,4,18,-
BRDA:60,4294967295,3,1
BRDA:60,4294967295,4,0
BRDA:60,0,6,1
BRDA:60,0,7,0
BRDA:60,1,9,0
BRDA:60,1,10,1
BRDA:60,2,12,-
BRDA:60,2,13,-
BRDA:60,3,15,-
BRDA:60,3,16,-
BRDA:60,4,18,-
BRDA:60,4,19,-
BRDA:63,4294967295,5,1
BRDA:63,4294967295,6,0
BRDA:63,0,8,1
BRDA:63,0,9,0
BRDA:63,1,12,1
BRDA:63,1,13,0
BRDA:65,0,1,1
BRDA:65,0,2,0
BRDA:65,1,4,1
BRDA:65,1,5,0
BRDA:66,4294967295,1,1
BRDA:66,4294967295,2,0
BRDA:66,0,4,1
BRDA:66,0,5,0
BRDA:66,1,7,0
BRDA:66,1,8,1
BRDA:66,2,10,-
BRDA:66,2,11,-
BRDA:66,3,13,-
BRDA:66,3,14,-
BRDA:66,4,16,-
BRDA:66,4,17,-
BRDA:67,4294967295,2,1
BRDA:67,4294967295,3,0
BRDA:67,0,5,1
BRDA:67,0,6,0
BRDA:67,1,8,0
BRDA:67,1,9,1
BRDA:67,2,11,-
BRDA:67,2,12,-
BRDA:67,3,14,-
BRDA:67,3,15,-
BRDA:67,4,17,-
BRDA:67,4,18,-
BRDA:68,4294967295,3,1
BRDA:68,4294967295,4,0
BRDA:68,0,6,1
BRDA:68,0,7,0
BRDA:68,1,9,0
BRDA:68,1,10,1
BRDA:68,2,12,-
BRDA:68,2,13,-
BRDA:68,3,15,-
BRDA:68,3,16,-
BRDA:68,4,18,-
BRDA:68,4,19,-
BRDA:71,4294967295,5,1
BRDA:71,4294967295,6,0
BRDA:71,0,8,1
BRDA:71,0,9,0
BRDA:71,1,12,1
BRDA:71,1,13,0
BRDA:73,0,1,1
BRDA:73,0,2,0
BRDA:73,1,4,1
BRDA:73,1,5,0
BRDA:74,4294967295,1,1
BRDA:74,4294967295,2,0
BRDA:74,0,4,1
BRDA:74,0,5,0
BRDA:74,1,7,0
BRDA:74,1,8,1
BRDA:74,2,10,-
BRDA:74,2,11,-
BRDA:74,3,13,-
BRDA:74,3,14,-
BRDA:74,4,16,-
BRDA:74,4,17,-
BRDA:75,4294967295,2,1
BRDA:75,4294967295,3,0
BRDA:75,0,5,1
BRDA:75,0,6,0
BRDA:75,1,8,0
BRDA:75,1,9,1
BRDA:75,2,11,-
BRDA:75,2,12,-
BRDA:75,3,14,-
BRDA:75,3,15,-
BRDA:75,4,17,-
BRDA:75,4,18,-
BRDA:76,4294967295,2,1
BRDA:76,4294967295,3,0
BRDA:76,0,5,1
BRDA:76,0,6,0
BRDA:76,1,8,0
BRDA:76,1,9,1
BRDA:76,2,11,-
BRDA:76,2,12,-
BRDA:76,3,14,-
BRDA:76,3,15,-
BRDA:76,4,17,-
BRDA:76,4,18,-
BRDA:77,4294967295,3,1
BRDA:77,4294967295,4,0
BRDA:77,0,6,1
BRDA:77,0,7,0
BRDA:77,1,9,0
BRDA:77,1,10,1
BRDA:77,2,12,-
BRDA:77,2,13,-
BRDA:77,3,15,-
BRDA:77,3,16,-
BRDA:77,4,18,-
BRDA:77,4,19,-
BRDA:78,4294967295,3,1
BRDA:78,4294967295,4,0
BRDA:78,0,6,1
BRDA:78,0,7,0
BRDA:78,1,9,0
BRDA:78,1,10,1
BRDA:78,2,12,-
BRDA:78,2,13,-
BRDA:78,3,15,-
BRDA:78,3,16,-
BRDA:78,4,18,-
BRDA:78,4,19,-
BRDA:81,4294967295,5,1
BRDA:81,4294967295,6,0
BRDA:81,0,8,1
BRDA:81,0,9,0
BRDA:81,1,12,1
BRDA:81,1,13,0
BRDA:83,0,1,1
BRDA:83,0,2,0
BRDA:83,1,4,1
BRDA:83,1,5,0
BRDA:84,4294967295,1,1
BRDA:84,4294967295,2,0
BRDA:84,0,4,1
BRDA:84,0,5,0
BRDA:84,1,7,0
BRDA:84,1,8,1
BRDA:84,2,10,-
BRDA:84,2,11,-
BRDA:84,3,13,-
BRDA:84,3,14,-
BRDA:84,4,16,-
BRDA:84,4,17,-
BRDA:85,4294967295,2,1
BRDA:85,4294967295,3,0
BRDA:85,0,5,1
BRDA:85,0,6,0
BRDA:85,1,8,0
BRDA:85,1,9,1
BRDA:85,2,11,-
BRDA:85,2,12,-
BRDA:85,3,14,-
BRDA:85,3,15,-
BRDA:85,4,17,-
BRDA:85,4,18,-
BRDA:86,4294967295,3,1
BRDA:86,4294967295,4,0
BRDA:86,0,6,1
BRDA:86,0,7,0
BRDA:86,1,9,0
BRDA:86,1,10,1
BRDA:86,2,12,-
BRDA:86,2,13,-
BRDA:86,3,15,-
BRDA:86,3,16,-
BRDA:86,4,18,-
BRDA:86,4,19,-
BRDA:87,4294967295,3,1
BRDA:87,4294967295,4,0
BRDA:87,0,6,1
BRDA:87,0,7,0
BRDA:87,1,9,0
BRDA:87,1,10,1
BRDA:87,2,12,-
BRDA:87,2,13,-
BRDA:87,3,15,-
BRDA:87,3,16,-
BRDA:87,4,18,-
BRDA:87,4,19,-
BRDA:90,4294967295,5,1
BRDA:90,4294967295,6,0
BRDA:90,0,8,1
BRDA:90,0,9,0
BRDA:90,1,12,1
BRDA:90,1,13,0
BRDA:92,0,1,1
BRDA:92,0,2,0
BRDA:92,1,4,1
BRDA:92,1,5,0
BRDA:93,4294967295,1,1
BRDA:93,4294967295,2,0
BRDA:93,0,4,1
BRDA:93,0,5,0
BRDA:93,1,7,0
BRDA:93,1,8,1
BRDA:93,2,10,-
BRDA:93,2,11,-
BRDA:93,3,13,-
BRDA:93,3,14,-
BRDA:93,4,16,-
BRDA:93,4,17,-
BRDA:94,4294967295,2,1
BRDA:94,4294967295,3,0
BRDA:94,0,5,1
BRDA:94,0,6,0
BRDA:94,1,8,0
BRDA:94,1,9,1
BRDA:94,2,11,-
BRDA:94,2,12,-
BRDA:94,3,14,-
BRDA:94,3,15,-
BRDA:94,4,17,-
BRDA:94,4,18,-
BRDA:95,4294967295,2,1
BRDA:95,4294967295,3,0
BRDA:95,0,5,1
BRDA:95,0,6,0
BRDA:95,1,8,0
BRDA:95,1,9,1
BRDA:95,2,11,-
BRDA:95,2,12,-
BRDA:95,3,14,-
BRDA:95,3,15,-
BRDA:95,4,17,-
BRDA:95,4,18,-
BRDA:96,4294967295,2,1
BRDA:96,4294967295,3,0
BRDA:96,0,5,1
BRDA:96,0,6,0
BRDA:96,1,8,0
BRDA:96,1,9,1
BRDA:96,2,11,-
BRDA:96,2,12,-
BRDA:96,3,14,-
BRDA:96,3,15,-
BRDA:96,4,17,-
BRDA:96,4,18,-
BRDA:97,4294967295,2,1
BRDA:97,4294967295,3,0
BRDA:97,0,5,1
BRDA:97,0,6,0
BRDA:97,1,8,0
BRDA:97,1,9,1
BRDA:97,2,11,-
BRDA:97,2,12,-
BRDA:97,3,14,-
BRDA:97,3,15,-
BRDA:97,4,17,-
BRDA:97,4,18,-
BRDA:100,4294967295,5,1
BRDA:100,4294967295,6,0
BRDA:100,0,8,1
BRDA:100,0,9,0
BRDA:100,1,12,1
BRDA:100,1,13,0
BRDA:102,0,1,1
BRDA:102,0,2,0
BRDA:102,1,4,1
BRDA:102,1,5,0
BRDA:102,2,7,1
BRDA:102,2,8,0
BRDA:103,4294967295,1,1
BRDA:103,4294967295,2,0
BRDA:103,0,4,1
BRDA:103,0,5,0
BRDA:104,4294967295,1,1
BRDA:104,4294967295,2,0
BRDA:104,0,4,1
BRDA:104,0,5,0
BRDA:104,1,7,0
BRDA:104,1,8,1
BRDA:104,2,10,-
BRDA:104,2,11,-
BRDA:104,3,13,-
BRDA:104,3,14,-
BRDA:104,4,16,-
BRDA:104,4,17,-
BRDA:105,4294967295,2,1
BRDA:105,4294967295,3,0
BRDA:105,0,5,1
BRDA:105,0,6,0
BRDA:105,1,8,0
BRDA:105,1,9,1
BRDA:105,2,11,-
BRDA:105,2,12,-
BRDA:105,3,14,-
BRDA:105,3,15,-
BRDA:105,4,17,-
BRDA:105,4,18,-
BRDA:106,4294967295,3,1
BRDA:106,4294967295,4,0
BRDA:106,0,6,1
BRDA:106,0,7,0
BRDA:106,1,9,0
BRDA:106,1,10,1
BRDA:106,2,12,-
BRDA:106,2,13,-
BRDA:106,3,15,-
BRDA:106,3,16,-
BRDA:106,4,18,-
BRDA:106,4,19,-
BRDA:109,3,1,1
BRDA:109,3,2,0
BRDA:109,4,3,1
BRDA:109,4,4,0
BRF:512
BRH:166
DA:7,20
DA:10,10
DA:12,10
DA:13,10
DA:14,10
DA:15,10
DA:16,10
DA:17,10
DA:18,10
DA:19,10
DA:20,10
DA:21,10
DA:22,10
DA:26,20
DA:29,8
DA:31,2
DA:32,1
DA:33,1
DA:35,8
DA:37,1
DA:38,1
DA:40,8
DA:42,1
DA:43,1
DA:44,1
DA:45,1
DA:47,8
DA:49,2
DA:50,1
DA:51,1
DA:52,1
DA:53,1
DA:55,8
DA:57,2
DA:58,1
DA:59,1
DA:60,1
DA:61,1
DA:63,8
DA:65,2
DA:66,1
DA:67,1
DA:68,1
DA:69,1
DA:71,8
DA:73,2
DA:74,1
DA:75,1
DA:76,1
DA:77,1
DA:78,1
DA:79,1
DA:81,8
DA:83,2
DA:84,1
DA:85,1
DA:86,1
DA:87,1
DA:88,1
DA:90,8
DA:92,2
DA:93,1
DA:94,1
DA:95,1
DA:96,1
DA:97,1
DA:98,1
DA:100,8
DA:102,1
DA:103,2
DA:104,1
DA:105,1
DA:106,1
DA:107,1
DA:109,4
LF:75
LH:75
end_of_record
TN:
SF:/media/mate/Shared/Projects/lmms/plugins/Diginstrument/test/test_main.cpp
FN:4,main
FN:18,_GLOBAL__sub_I_test_main.cpp
FN:18,_Z41__static_initialization_and_destruction_0ii
FNDA:17,main
FNDA:17,_GLOBAL__sub_I_test_main.cpp
FNDA:17,_Z41__static_initialization_and_destruction_0ii
FNF:3
FNH:3
BRDA:6,0,0,17
BRDA:6,0,1,0
BRDA:7,0,3,17
BRDA:7,0,4,0
BRDA:18,3,1,17
BRDA:18,3,2,0
BRDA:18,4,3,17
BRDA:18,4,4,0
BRF:8
BRH:4
DA:4,17
DA:6,17
DA:7,17
DA:8,17
DA:9,17
DA:10,17
DA:11,17
DA:14,0
DA:15,0
DA:16,0
DA:17,0
DA:18,68
LF:12
LH:8
end_of_record
